target datalayout = "e-m:e-p270:32:32-p271:32:32-p272:64:64-i64:64-i128:128-f80:128-n8:16:32:64-S128"
target triple = "x86_64-unknown-linux-gnu"

%"class.QuantLib::FdmLinearOp" = type { ptr }
%"class.std::unique_ptr" = type { %"struct.std::__uniq_ptr_data" }
%"struct.std::__uniq_ptr_data" = type { %"class.std::__uniq_ptr_impl" }
%"class.std::__uniq_ptr_impl" = type { %"class.std::tuple" }
%"class.std::tuple" = type { %"struct.std::_Tuple_impl" }
%"struct.std::_Tuple_impl" = type { %"struct.std::_Head_base.1" }
%"struct.std::_Head_base.1" = type { ptr }
%"class.boost::detail::shared_count" = type { ptr }
%"class.QuantLib::Array" = type { %"class.std::unique_ptr", i64 }
%"class.QuantLib::FdmSquareRootFwdOp" = type { %"class.QuantLib::FdmLinearOpComposite", i64, double, double, double, i32, %"class.boost::shared_ptr", %"class.QuantLib::Array" }
%"class.QuantLib::FdmLinearOpComposite" = type { %"class.QuantLib::FdmLinearOp" }
%"class.boost::shared_ptr" = type { ptr, %"class.boost::detail::shared_count" }

; Function Attrs: mustprogress uwtable
define void @_ZNK8QuantLib18FdmSquareRootFwdOp8getCoeffERdS1_S1_m(ptr noundef nonnull align 8 dereferenceable(80) %this, ptr noundef nonnull align 8 dereferenceable(8) %alpha, ptr noundef nonnull align 8 dereferenceable(8) %beta, ptr noundef nonnull align 8 dereferenceable(8) %gamma, i64 noundef %n) #4 align 2 {
entry:
  %this.addr = alloca ptr, align 8
  %alpha.addr = alloca ptr, align 8
  %beta.addr = alloca ptr, align 8
  %gamma.addr = alloca ptr, align 8
  %n.addr = alloca i64, align 8
  store ptr %this, ptr %this.addr, align 8, !tbaa !3
  store ptr %alpha, ptr %alpha.addr, align 8, !tbaa !3
  store ptr %beta, ptr %beta.addr, align 8, !tbaa !3
  store ptr %gamma, ptr %gamma.addr, align 8, !tbaa !3
  store i64 %n, ptr %n.addr, align 8, !tbaa !9
  %this1 = load ptr, ptr %this.addr, align 8
  %transform_ = getelementptr inbounds nuw %"class.QuantLib::FdmSquareRootFwdOp", ptr %this1, i32 0, i32 5
  %0 = load i32, ptr %transform_, align 8, !tbaa !31
  %cmp = icmp eq i32 %0, 0
  br i1 %cmp, label %if.then, label %if.else

if.then:                                          ; preds = %entry
  %1 = load ptr, ptr %alpha.addr, align 8, !tbaa !3
  %2 = load ptr, ptr %beta.addr, align 8, !tbaa !3
  %3 = load ptr, ptr %gamma.addr, align 8, !tbaa !3
  %4 = load i64, ptr %n.addr, align 8, !tbaa !9
  call void @_ZNK8QuantLib18FdmSquareRootFwdOp13getCoeffPlainERdS1_S1_m(ptr noundef nonnull align 8 dereferenceable(80) %this1, ptr noundef nonnull align 8 dereferenceable(8) %1, ptr noundef nonnull align 8 dereferenceable(8) %2, ptr noundef nonnull align 8 dereferenceable(8) %3, i64 noundef %4)
  br label %if.end10

if.else:                                          ; preds = %entry
  %transform_2 = getelementptr inbounds nuw %"class.QuantLib::FdmSquareRootFwdOp", ptr %this1, i32 0, i32 5
  %5 = load i32, ptr %transform_2, align 8, !tbaa !31
  %cmp3 = icmp eq i32 %5, 1
  br i1 %cmp3, label %if.then4, label %if.else5

if.then4:                                         ; preds = %if.else
  %6 = load ptr, ptr %alpha.addr, align 8, !tbaa !3
  %7 = load ptr, ptr %beta.addr, align 8, !tbaa !3
  %8 = load ptr, ptr %gamma.addr, align 8, !tbaa !3
  %9 = load i64, ptr %n.addr, align 8, !tbaa !9
  call void @_ZNK8QuantLib18FdmSquareRootFwdOp13getCoeffPowerERdS1_S1_m(ptr noundef nonnull align 8 dereferenceable(80) %this1, ptr noundef nonnull align 8 dereferenceable(8) %6, ptr noundef nonnull align 8 dereferenceable(8) %7, ptr noundef nonnull align 8 dereferenceable(8) %8, i64 noundef %9)
  br label %if.end9

if.else5:                                         ; preds = %if.else
  %transform_6 = getelementptr inbounds nuw %"class.QuantLib::FdmSquareRootFwdOp", ptr %this1, i32 0, i32 5
  %10 = load i32, ptr %transform_6, align 8, !tbaa !31
  %cmp7 = icmp eq i32 %10, 2
  br i1 %cmp7, label %if.then8, label %if.end

if.then8:                                         ; preds = %if.else5
  %11 = load ptr, ptr %alpha.addr, align 8, !tbaa !3
  %12 = load ptr, ptr %beta.addr, align 8, !tbaa !3
  %13 = load ptr, ptr %gamma.addr, align 8, !tbaa !3
  %14 = load i64, ptr %n.addr, align 8, !tbaa !9
  call void @_ZNK8QuantLib18FdmSquareRootFwdOp11getCoeffLogERdS1_S1_m(ptr noundef nonnull align 8 dereferenceable(80) %this1, ptr noundef nonnull align 8 dereferenceable(8) %11, ptr noundef nonnull align 8 dereferenceable(8) %12, ptr noundef nonnull align 8 dereferenceable(8) %13, i64 noundef %14)
  br label %if.end

if.end:                                           ; preds = %if.then8, %if.else5
  br label %if.end9

if.end9:                                          ; preds = %if.end, %if.then4
  br label %if.end10

if.end10:                                         ; preds = %if.end9, %if.then
  ret void
}