; Function Attrs: mustprogress uwtable
define void @_ZNK8QuantLib18FdmSquareRootFwdOp8getCoeffERdS1_S1_m(ptr nocapture noundef nonnull readonly align 8 dereferenceable(80) %this, ptr nocapture noundef nonnull writeonly align 8 dereferenceable(8) %alpha, ptr nocapture noundef nonnull writeonly align 8 dereferenceable(8) %beta, ptr nocapture noundef nonnull writeonly align 8 dereferenceable(8) %gamma, i64 noundef %n) local_unnamed_addr #3 align 2 {
entry:
  %transform_ = getelementptr inbounds nuw i8, ptr %this, i64 40
  %0 = load i32, ptr %transform_, align 8, !tbaa !27
  switch i32 %0, label %if.end10 [
    i32 0, label %if.then
    i32 1, label %if.then4
    i32 2, label %if.then8
  ]

if.then:                                          ; preds = %entry
  tail call void @_ZNK8QuantLib18FdmSquareRootFwdOp13getCoeffPlainERdS1_S1_m(ptr noundef nonnull align 8 dereferenceable(80) %this, ptr noundef nonnull align 8 dereferenceable(8) %alpha, ptr noundef nonnull align 8 dereferenceable(8) %beta, ptr noundef nonnull align 8 dereferenceable(8) %gamma, i64 noundef %n)
  br label %if.end10

if.then4:                                         ; preds = %entry
  tail call void @_ZNK8QuantLib18FdmSquareRootFwdOp13getCoeffPowerERdS1_S1_m(ptr noundef nonnull align 8 dereferenceable(80) %this, ptr noundef nonnull align 8 dereferenceable(8) %alpha, ptr noundef nonnull align 8 dereferenceable(8) %beta, ptr noundef nonnull align 8 dereferenceable(8) %gamma, i64 noundef %n)
  br label %if.end10

if.then8:                                         ; preds = %entry
  tail call void @_ZNK8QuantLib18FdmSquareRootFwdOp11getCoeffLogERdS1_S1_m(ptr noundef nonnull align 8 dereferenceable(80) %this, ptr noundef nonnull align 8 dereferenceable(8) %alpha, ptr noundef nonnull align 8 dereferenceable(8) %beta, ptr noundef nonnull align 8 dereferenceable(8) %gamma, i64 noundef %n)
  br label %if.end10

if.end10:                                         ; preds = %entry, %if.then4, %if.then8, %if.then
  ret void
}